target datalayout = "e-m:e-p270:32:32-p271:32:32-p272:64:64-i64:64-i128:128-f80:128-n8:16:32:64-S128"
target triple = "x86_64-pc-linux-gnu"

%struct.H5G_node_key_t = type { i64 }
%struct.H5G_bt_common_t = type { ptr, ptr, i64 }

@H5G_init_g = external global i8, align 1
@H5_libterm_g = external global i8, align 1
@.str.21 = private unnamed_addr constant [1 x i8] zeroinitializer, align 1
@.str.26 = private unnamed_addr constant [12 x i8] c"%*s%-*s %u\0A\00", align 1
@.str.32 = private unnamed_addr constant [6 x i8] c"Name:\00", align 1
@.str.38 = private unnamed_addr constant [13 x i8] c"Heap offset:\00", align 1
@.str.39 = private unnamed_addr constant [9 x i8] c"%*s%-*s \00", align 1
@.str.40 = private unnamed_addr constant [4 x i8] c"%s\0A\00", align 1
@.str.41 = private unnamed_addr constant [45 x i8] c"Cannot get name; heap address not specified\0A\00", align 1

; Function Attrs: nounwind uwtable
define internal i32 @H5G__node_debug_key(ptr noundef %0, i32 noundef %1, i32 noundef %2, ptr noundef %3, ptr noundef %4) #0 {
  %6 = alloca ptr, align 8
  %7 = alloca i32, align 4
  %8 = alloca i32, align 4
  %9 = alloca ptr, align 8
  %10 = alloca ptr, align 8
  %11 = alloca ptr, align 8
  %12 = alloca ptr, align 8
  %13 = alloca ptr, align 8
  store ptr %0, ptr %6, align 8, !tbaa !100
  store i32 %1, ptr %7, align 4, !tbaa !13
  store i32 %2, ptr %8, align 4, !tbaa !13
  store ptr %3, ptr %9, align 8, !tbaa !8
  store ptr %4, ptr %10, align 8, !tbaa !8
  call void @llvm.lifetime.start.p0(i64 8, ptr %11) #8
  %14 = load ptr, ptr %9, align 8, !tbaa !8
  store ptr %14, ptr %11, align 8, !tbaa !17
  call void @llvm.lifetime.start.p0(i64 8, ptr %12) #8
  %15 = load ptr, ptr %10, align 8, !tbaa !8
  store ptr %15, ptr %12, align 8, !tbaa !35
  %16 = load i8, ptr @H5G_init_g, align 1, !tbaa !9, !range !11, !noundef !12
  %17 = trunc i8 %16 to i1
  br i1 %17, label %22, label %18

18:                                               ; preds = %5
  %19 = load i8, ptr @H5_libterm_g, align 1, !tbaa !9, !range !11, !noundef !12
  %20 = trunc i8 %19 to i1
  %21 = xor i1 %20, true
  br label %22

22:                                               ; preds = %18, %5
  %23 = phi i1 [ true, %5 ], [ %21, %18 ]
  %24 = xor i1 %23, true
  %25 = xor i1 %24, true
  %26 = zext i1 %25 to i32
  %27 = sext i32 %26 to i64
  %28 = call i64 @llvm.expect.i64(i64 %27, i64 1)
  %29 = icmp ne i64 %28, 0
  br i1 %29, label %30, label %67

30:                                               ; preds = %22
  %31 = load ptr, ptr %6, align 8, !tbaa !100
  %32 = load i32, ptr %7, align 4, !tbaa !13
  %33 = load i32, ptr %8, align 4, !tbaa !13
  %34 = load ptr, ptr %11, align 8, !tbaa !17
  %35 = getelementptr inbounds nuw %struct.H5G_node_key_t, ptr %34, i32 0, i32 0
  %36 = load i64, ptr %35, align 8, !tbaa !33
  %37 = trunc i64 %36 to i32
  %38 = call i32 (ptr, ptr, ...) @fprintf(ptr noundef %31, ptr noundef @.str.26, i32 noundef %32, ptr noundef @.str.21, i32 noundef %33, ptr noundef @.str.38, i32 noundef %37) #8
  %39 = load ptr, ptr %12, align 8, !tbaa !35
  %40 = getelementptr inbounds nuw %struct.H5G_bt_common_t, ptr %39, i32 0, i32 1
  %41 = load ptr, ptr %40, align 8, !tbaa !37
  %42 = icmp ne ptr %41, null
  br i1 %42, label %43, label %61

43:                                               ; preds = %30
  call void @llvm.lifetime.start.p0(i64 8, ptr %13) #8
  %44 = load ptr, ptr %6, align 8, !tbaa !100
  %45 = load i32, ptr %7, align 4, !tbaa !13
  %46 = load i32, ptr %8, align 4, !tbaa !13
  %47 = call i32 (ptr, ptr, ...) @fprintf(ptr noundef %44, ptr noundef @.str.39, i32 noundef %45, ptr noundef @.str.21, i32 noundef %46, ptr noundef @.str.32) #8
  %48 = load ptr, ptr %12, align 8, !tbaa !35
  %49 = getelementptr inbounds nuw %struct.H5G_bt_common_t, ptr %48, i32 0, i32 1
  %50 = load ptr, ptr %49, align 8, !tbaa !37
  %51 = load ptr, ptr %11, align 8, !tbaa !17
  %52 = getelementptr inbounds nuw %struct.H5G_node_key_t, ptr %51, i32 0, i32 0
  %53 = load i64, ptr %52, align 8, !tbaa !33
  %54 = call ptr @H5HL_offset_into(ptr noundef %50, i64 noundef %53)
  store ptr %54, ptr %13, align 8, !tbaa !41
  %55 = icmp ne ptr %54, null
  br i1 %55, label %56, label %60

56:                                               ; preds = %43
  %57 = load ptr, ptr %6, align 8, !tbaa !100
  %58 = load ptr, ptr %13, align 8, !tbaa !41
  %59 = call i32 (ptr, ptr, ...) @fprintf(ptr noundef %57, ptr noundef @.str.40, ptr noundef %58) #8
  br label %60

60:                                               ; preds = %56, %43
  call void @llvm.lifetime.end.p0(i64 8, ptr %13) #8
  br label %66

61:                                               ; preds = %30
  %62 = load ptr, ptr %6, align 8, !tbaa !100
  %63 = load i32, ptr %7, align 4, !tbaa !13
  %64 = load i32, ptr %8, align 4, !tbaa !13
  %65 = call i32 (ptr, ptr, ...) @fprintf(ptr noundef %62, ptr noundef @.str.39, i32 noundef %63, ptr noundef @.str.21, i32 noundef %64, ptr noundef @.str.41) #8
  br label %66

66:                                               ; preds = %61, %60
  br label %67

67:                                               ; preds = %66, %22
  call void @llvm.lifetime.end.p0(i64 8, ptr %12) #8
  call void @llvm.lifetime.end.p0(i64 8, ptr %11) #8
  ret i32 0
}