; Function Attrs: nounwind uwtable
define internal noundef i32 @H5G__node_debug_key(ptr noundef captures(none) %0, i32 noundef %1, i32 noundef %2, ptr noundef readonly captures(none) %3, ptr noundef readonly captures(none) %4) #0 {
  %6 = load i8, ptr @H5G_init_g, align 1, !tbaa !3, !range !7, !noundef !8
  %7 = trunc nuw i8 %6 to i1
  %8 = load i8, ptr @H5_libterm_g, align 1, !range !7
  %9 = trunc nuw i8 %8 to i1
  %10 = xor i1 %9, true
  %11 = select i1 %7, i1 true, i1 %10
  br i1 %11, label %12, label %27, !prof !9

12:                                               ; preds = %5
  %13 = load i64, ptr %3, align 8, !tbaa !25
  %14 = trunc i64 %13 to i32
  %15 = tail call i32 (ptr, ptr, ...) @fprintf(ptr noundef %0, ptr noundef nonnull @.str.26, i32 noundef %1, ptr noundef nonnull @.str.21, i32 noundef %2, ptr noundef nonnull @.str.38, i32 noundef %14) #9
  %16 = getelementptr inbounds nuw i8, ptr %4, i64 8
  %17 = load ptr, ptr %16, align 8, !tbaa !27
  %.not = icmp eq ptr %17, null
  br i1 %.not, label %25, label %18

18:                                               ; preds = %12
  %19 = tail call i32 (ptr, ptr, ...) @fprintf(ptr noundef %0, ptr noundef nonnull @.str.39, i32 noundef %1, ptr noundef nonnull @.str.21, i32 noundef %2, ptr noundef nonnull @.str.32) #9
  %20 = load ptr, ptr %16, align 8, !tbaa !27
  %21 = load i64, ptr %3, align 8, !tbaa !25
  %22 = tail call ptr @H5HL_offset_into(ptr noundef %20, i64 noundef %21) #9
  %.not16 = icmp eq ptr %22, null
  br i1 %.not16, label %27, label %23

23:                                               ; preds = %18
  %24 = tail call i32 (ptr, ptr, ...) @fprintf(ptr noundef %0, ptr noundef nonnull @.str.40, ptr noundef nonnull %22) #9
  br label %27

25:                                               ; preds = %12
  %26 = tail call i32 (ptr, ptr, ...) @fprintf(ptr noundef %0, ptr noundef nonnull @.str.39, i32 noundef %1, ptr noundef nonnull @.str.21, i32 noundef %2, ptr noundef nonnull @.str.41) #9
  br label %27

27:                                               ; preds = %18, %23, %25, %5
  ret i32 0
}